target datalayout = "e-m:e-p270:32:32-p271:32:32-p272:64:64-i64:64-i128:128-f80:128-n8:16:32:64-S128"
target triple = "x86_64-pc-linux-gnu"

%"struct.duckdb_libpgquery::pg_parser_state_str" = type { i32, i32, [8192 x i8], i64, i64, ptr, i64 }

@_ZN17duckdb_libpgqueryL15pg_parser_stateE = internal thread_local global %"struct.duckdb_libpgquery::pg_parser_state_str" zeroinitializer, align 8
@_ZTISt13runtime_error = external constant ptr

; Function Attrs: mustprogress uwtable
define hidden noundef i32 @_ZN17duckdb_libpgquery7ereportEiz(i32 noundef %0, ...) #0 personality ptr @__gxx_personality_v0 {
  %2 = alloca i32, align 4
  %3 = alloca ptr, align 8
  %4 = alloca i32, align 4
  store i32 %0, ptr %2, align 4, !tbaa !43
  %5 = call ptr @__cxa_allocate_exception(i64 16) #13
  %6 = call align 8 ptr @llvm.threadlocal.address.p0(ptr align 8 @_ZN17duckdb_libpgqueryL15pg_parser_stateE)
  %7 = getelementptr inbounds nuw %"struct.duckdb_libpgquery::pg_parser_state_str", ptr %6, i32 0, i32 2
  %8 = getelementptr inbounds [8192 x i8], ptr %7, i64 0, i64 0
  invoke void @_ZNSt13runtime_errorC1EPKc(ptr noundef nonnull align 8 dereferenceable(16) %5, ptr noundef %8)
          to label %9 unwind label %10

9:                                                ; preds = %1
  call void @__cxa_throw(ptr %5, ptr @_ZTISt13runtime_error, ptr @_ZNSt13runtime_errorD1Ev) #15
  unreachable

10:                                               ; preds = %1
  %11 = landingpad { ptr, i32 }
          cleanup
  %12 = extractvalue { ptr, i32 } %11, 0
  store ptr %12, ptr %3, align 8
  %13 = extractvalue { ptr, i32 } %11, 1
  store i32 %13, ptr %4, align 4
  call void @__cxa_free_exception(ptr %5) #13
  br label %14

14:                                               ; preds = %10
  %15 = load ptr, ptr %3, align 8
  %16 = load i32, ptr %4, align 4
  %17 = insertvalue { ptr, i32 } poison, ptr %15, 0
  %18 = insertvalue { ptr, i32 } %17, i32 %16, 1
  resume { ptr, i32 } %18
}