; Function Attrs: mustprogress noreturn uwtable
define hidden noundef i32 @_ZN17duckdb_libpgquery7ereportEiz(i32 noundef %0, ...) local_unnamed_addr #14 personality ptr @__gxx_personality_v0 {
  %2 = tail call ptr @__cxa_allocate_exception(i64 16) #24
  %3 = tail call align 8 ptr @llvm.threadlocal.address.p0(ptr align 8 @_ZN17duckdb_libpgqueryL15pg_parser_stateE)
  %4 = getelementptr inbounds nuw i8, ptr %3, i64 8
  invoke void @_ZNSt13runtime_errorC1EPKc(ptr noundef nonnull align 8 dereferenceable(16) %2, ptr noundef nonnull %4)
          to label %5 unwind label %6

5:                                                ; preds = %1
  tail call void @__cxa_throw(ptr nonnull %2, ptr nonnull @_ZTISt13runtime_error, ptr nonnull @_ZNSt13runtime_errorD1Ev) #25
  unreachable

6:                                                ; preds = %1
  %7 = landingpad { ptr, i32 }
          cleanup
  tail call void @__cxa_free_exception(ptr nonnull %2) #24
  resume { ptr, i32 } %7
}